(dp0
Vengine
p1
S'pdflatex'
p2
sVpackages
p3
c__builtin__
set
p4
((lp5
Vinputenc
p6
aVgraphicx
p7
aVdirtree
p8
atp9
Rp10
sVfiles_with_guttermarks
p11
g4
((lp12
S'bakalarska_prace.tex'
p13
aV/Users/marek/Documents/git/drops/docs/bakalarska_prace.tex
p14
atp15
Rp16
sVsynctex
p17
I01
s.